; Function Attrs: nofree norecurse nosync nounwind memory(argmem: read) uwtable
define internal range(i32 0, 2) i32 @HasAlpha8b_SSE2(ptr noundef readonly captures(none) %0, i32 noundef %1) #3 {
  %3 = sext i32 %1 to i64
  br label %4

4:                                                ; preds = %7, %2
  %indvars.iv = phi i64 [ %indvars.iv.next, %7 ], [ 0, %2 ]
  %indvars.iv.next = add nuw nsw i64 %indvars.iv, 16
  %.not = icmp sgt i64 %indvars.iv.next, %3
  br i1 %.not, label %.preheader, label %7

.preheader:                                       ; preds = %4
  %5 = trunc nuw nsw i64 %indvars.iv to i32
  %6 = icmp sgt i32 %1, %5
  br i1 %6, label %.lr.ph.preheader, label %.loopexit

.lr.ph.preheader:                                 ; preds = %.preheader
  %wide.trip.count = zext i32 %1 to i64
  br label %.lr.ph

7:                                                ; preds = %4
  %8 = getelementptr inbounds nuw i8, ptr %0, i64 %indvars.iv
  %9 = load <16 x i8>, ptr %8, align 1, !tbaa !7
  %10 = icmp ne <16 x i8> %9, splat (i8 -1)
  %11 = bitcast <16 x i1> %10 to i16
  %.not20 = icmp eq i16 %11, 0
  br i1 %.not20, label %4, label %.loopexit, !llvm.loop !28

12:                                               ; preds = %.lr.ph
  %indvars.iv.next31 = add nuw nsw i64 %indvars.iv30, 1
  %exitcond.not = icmp eq i64 %indvars.iv.next31, %wide.trip.count
  br i1 %exitcond.not, label %.loopexit, label %.lr.ph, !llvm.loop !29

.lr.ph:                                           ; preds = %.lr.ph.preheader, %12
  %indvars.iv30 = phi i64 [ %indvars.iv, %.lr.ph.preheader ], [ %indvars.iv.next31, %12 ]
  %13 = getelementptr inbounds nuw i8, ptr %0, i64 %indvars.iv30
  %14 = load i8, ptr %13, align 1, !tbaa !7
  %.not19 = icmp eq i8 %14, -1
  br i1 %.not19, label %12, label %.loopexit

.loopexit:                                        ; preds = %7, %.lr.ph, %12, %.preheader
  %.2 = phi i32 [ 0, %.preheader ], [ 1, %.lr.ph ], [ 0, %12 ], [ 1, %7 ]
  ret i32 %.2
}